; Function Attrs: mustprogress uwtable
define void @_ZN12colvarmodule6to_strB5cxx11ERKNS_7rvectorEmm(ptr dead_on_unwind noalias writable sret(%"class.std::__cxx11::basic_string") align 8 %0, ptr noundef nonnull align 8 dereferenceable(24) %1, i64 noundef %2, i64 noundef %3) local_unnamed_addr #3 align 2 personality ptr @__gxx_personality_v0 {
  %5 = alloca %"class.std::__cxx11::basic_ostringstream", align 8
  call void @llvm.lifetime.start.p0(i64 376, ptr nonnull %5)
  call void @_ZNSt7__cxx1119basic_ostringstreamIcSt11char_traitsIcESaIcEEC1Ev(ptr noundef nonnull align 8 dereferenceable(112) %5), !noalias !260
  %.not.i = icmp eq i64 %2, 0
  br i1 %.not.i, label %12, label %6

6:                                                ; preds = %4
  %7 = load ptr, ptr %5, align 8, !noalias !260
  %8 = getelementptr i8, ptr %7, i64 -24
  %9 = load i64, ptr %8, align 8, !noalias !260
  %10 = getelementptr inbounds i8, ptr %5, i64 %9
  %11 = getelementptr inbounds i8, ptr %10, i64 16
  store i64 %2, ptr %11, align 8, !noalias !260
  br label %12

12:                                               ; preds = %6, %4
  %.not7.i = icmp eq i64 %3, 0
  br i1 %.not7.i, label %29, label %13

13:                                               ; preds = %12
  %14 = load ptr, ptr %5, align 8, !noalias !260
  %15 = getelementptr i8, ptr %14, i64 -24
  %16 = load i64, ptr %15, align 8, !noalias !260
  %17 = getelementptr inbounds i8, ptr %5, i64 %16
  %18 = getelementptr inbounds i8, ptr %17, i64 24
  %19 = load i32, ptr %18, align 8, !noalias !260
  %20 = and i32 %19, -261
  %21 = or disjoint i32 %20, 256
  store i32 %21, ptr %18, align 4, !noalias !260
  %22 = load ptr, ptr %5, align 8, !noalias !260
  %23 = getelementptr i8, ptr %22, i64 -24
  %24 = load i64, ptr %23, align 8, !noalias !260
  %25 = getelementptr inbounds i8, ptr %5, i64 %24
  %26 = getelementptr inbounds i8, ptr %25, i64 8
  store i64 %3, ptr %26, align 8, !noalias !260
  br label %29

27:                                               ; preds = %31, %29
  %28 = landingpad { ptr, i32 }
          cleanup
  call void @_ZNSt7__cxx1119basic_ostringstreamIcSt11char_traitsIcESaIcEED1Ev(ptr noundef nonnull align 8 dereferenceable(112) %5) #24
  resume { ptr, i32 } %28

29:                                               ; preds = %13, %12
  %30 = invoke noundef nonnull align 8 dereferenceable(8) ptr @_ZlsRSoRKN12colvarmodule7rvectorE(ptr noundef nonnull align 8 dereferenceable(8) %5, ptr noundef nonnull align 8 dereferenceable(24) %1)
          to label %31 unwind label %27, !noalias !260

31:                                               ; preds = %29
  invoke void @_ZNKSt7__cxx1119basic_ostringstreamIcSt11char_traitsIcESaIcEE3strEv(ptr dead_on_unwind writable sret(%"class.std::__cxx11::basic_string") align 8 %0, ptr noundef nonnull align 8 dereferenceable(112) %5)
          to label %_Z7_to_strIN12colvarmodule7rvectorEENSt7__cxx1112basic_stringIcSt11char_traitsIcESaIcEEERKT_mm.exit unwind label %27

_Z7_to_strIN12colvarmodule7rvectorEENSt7__cxx1112basic_stringIcSt11char_traitsIcESaIcEEERKT_mm.exit: ; preds = %31
  call void @_ZNSt7__cxx1119basic_ostringstreamIcSt11char_traitsIcESaIcEED1Ev(ptr noundef nonnull align 8 dereferenceable(112) %5) #24
  call void @llvm.lifetime.end.p0(i64 376, ptr nonnull %5)
  ret void
}